target datalayout = "e-m:e-p270:32:32-p271:32:32-p272:64:64-i64:64-i128:128-f80:128-n8:16:32:64-S128"
target triple = "x86_64-pc-linux-gnu"

%"class.duckdb_mbedtls::MbedTlsWrapper::AESGCMStateMBEDTLS" = type { %"class.duckdb::EncryptionState", i8, ptr }
%"class.duckdb::EncryptionState" = type { ptr }

; Function Attrs: mustprogress nounwind uwtable
define hidden void @_ZN14duckdb_mbedtls14MbedTlsWrapper18AESGCMStateMBEDTLSD2Ev(ptr noundef nonnull align 8 dereferenceable(24) %0) unnamed_addr #4 align 2 personality ptr @__gxx_personality_v0 {
  %2 = alloca ptr, align 8
  %3 = alloca ptr, align 8
  store ptr %0, ptr %2, align 8, !tbaa !38
  %4 = load ptr, ptr %2, align 8
  store ptr getelementptr inbounds inrange(-16, 64) ({ [10 x ptr] }, ptr @_ZTVN14duckdb_mbedtls14MbedTlsWrapper18AESGCMStateMBEDTLSE, i32 0, i32 0, i32 2), ptr %4, align 8, !tbaa !40
  call void @llvm.lifetime.start.p0(i64 8, ptr %3) #13
  %5 = getelementptr inbounds nuw %"class.duckdb_mbedtls::MbedTlsWrapper::AESGCMStateMBEDTLS", ptr %4, i32 0, i32 2
  %6 = load ptr, ptr %5, align 8, !tbaa !45
  store ptr %6, ptr %3, align 8, !tbaa !46
  %7 = load ptr, ptr %3, align 8, !tbaa !46
  invoke void @mbedtls_gcm_free(ptr noundef %7)
          to label %8 unwind label %13

8:                                                ; preds = %1
  %9 = load ptr, ptr %3, align 8, !tbaa !46
  %10 = icmp eq ptr %9, null
  br i1 %10, label %12, label %11

11:                                               ; preds = %8
  call void @_ZdlPv(ptr noundef %9) #17
  br label %12

12:                                               ; preds = %11, %8
  call void @llvm.lifetime.end.p0(i64 8, ptr %3) #13
  call void @_ZN6duckdb15EncryptionStateD2Ev(ptr noundef nonnull align 8 dereferenceable(8) %4) #13
  ret void

13:                                               ; preds = %1
  %14 = landingpad { ptr, i32 }
          catch ptr null
  %15 = extractvalue { ptr, i32 } %14, 0
  call void @__clang_call_terminate(ptr %15) #15
  unreachable
}