; Function Attrs: mustprogress nounwind uwtable
define hidden void @_ZN14duckdb_mbedtls14MbedTlsWrapper18AESGCMStateMBEDTLSD2Ev(ptr noundef nonnull align 8 dereferenceable(24) initializes((0, 8)) %0) unnamed_addr #9 align 2 personality ptr @__gxx_personality_v0 {
  store ptr getelementptr inbounds nuw inrange(-16, 64) (i8, ptr @_ZTVN14duckdb_mbedtls14MbedTlsWrapper18AESGCMStateMBEDTLSE, i64 16), ptr %0, align 8, !tbaa !22
  %2 = getelementptr inbounds nuw i8, ptr %0, i64 16
  %3 = load ptr, ptr %2, align 8, !tbaa !28
  invoke void @mbedtls_gcm_free(ptr noundef %3)
          to label %4 unwind label %8

4:                                                ; preds = %1
  %5 = icmp eq ptr %3, null
  br i1 %5, label %7, label %6

6:                                                ; preds = %4
  tail call void @_ZdlPv(ptr noundef nonnull %3) #21
  br label %7

7:                                                ; preds = %6, %4
  tail call void @_ZN6duckdb15EncryptionStateD2Ev(ptr noundef nonnull align 8 dereferenceable(8) %0) #19
  ret void

8:                                                ; preds = %1
  %9 = landingpad { ptr, i32 }
          catch ptr null
  %10 = extractvalue { ptr, i32 } %9, 0
  tail call void @__clang_call_terminate(ptr %10) #23
  unreachable
}